; Function Attrs: nounwind uwtable
define i32 @Aig_ManPropagateBuffers(ptr noundef %0, i32 noundef %1) local_unnamed_addr #0 {
  %3 = getelementptr inbounds nuw i8, ptr %0, i64 40
  %4 = load ptr, ptr %3, align 8, !tbaa !40
  %5 = getelementptr i8, ptr %4, i64 4
  %.val21 = load i32, ptr %5, align 4, !tbaa !22
  %6 = icmp sgt i32 %.val21, 0
  br i1 %6, label %.lr.ph25, label %.loopexit

.lr.ph25:                                         ; preds = %2
  %7 = getelementptr i8, ptr %0, i64 32
  %8 = getelementptr i8, ptr %0, i64 176
  br label %9

9:                                                ; preds = %.lr.ph25, %32
  %.val23 = phi i32 [ %.val21, %.lr.ph25 ], [ %.val, %32 ]
  %10 = phi ptr [ %4, %.lr.ph25 ], [ %34, %32 ]
  %.022 = phi i32 [ 0, %.lr.ph25 ], [ %33, %32 ]
  %11 = getelementptr i8, ptr %10, i64 8
  %.val12 = load ptr, ptr %11, align 8, !tbaa !26
  %12 = zext nneg i32 %.val23 to i64
  %13 = getelementptr ptr, ptr %.val12, i64 %12
  %14 = getelementptr i8, ptr %13, i64 -8
  %15 = load ptr, ptr %14, align 8, !tbaa !27
  %16 = getelementptr i8, ptr %15, i64 24
  %.010.val18 = load i64, ptr %16, align 8
  %17 = and i64 %.010.val18, 7
  %.not19 = icmp eq i64 %17, 4
  br i1 %.not19, label %.lr.ph, label %._crit_edge

.lr.ph:                                           ; preds = %9
  %.val13 = load ptr, ptr %7, align 8, !tbaa !21
  %.not.i.i = icmp eq ptr %.val13, null
  br i1 %.not.i.i, label %.lr.ph.split.us, label %.lr.ph.split

.lr.ph.split.us:                                  ; preds = %.lr.ph
  %.010.val.us = load i64, ptr inttoptr (i64 24 to ptr), align 8
  %18 = and i64 %.010.val.us, 7
  %.not.us = icmp eq i64 %18, 4
  tail call void @llvm.assume(i1 %.not.us)
  br label %Aig_ObjFanout0.exit.us

Aig_ObjFanout0.exit.us:                           ; preds = %.lr.ph.split.us, %Aig_ObjFanout0.exit.us
  br label %Aig_ObjFanout0.exit.us

.lr.ph.split:                                     ; preds = %.lr.ph
  %19 = getelementptr i8, ptr %.val13, i64 8
  %.val14 = load ptr, ptr %8, align 8, !tbaa !33
  %.val.i.i = load ptr, ptr %19, align 8, !tbaa !26
  br label %Aig_ObjFanout0.exit

Aig_ObjFanout0.exit:                              ; preds = %.lr.ph.split, %Aig_ObjFanout0.exit
  %.01020 = phi ptr [ %15, %.lr.ph.split ], [ %28, %Aig_ObjFanout0.exit ]
  %20 = getelementptr i8, ptr %.01020, i64 36
  %.010.val15 = load i32, ptr %20, align 4, !tbaa !24
  %21 = mul nsw i32 %.010.val15, 5
  %22 = sext i32 %21 to i64
  %23 = getelementptr inbounds i32, ptr %.val14, i64 %22
  %24 = load i32, ptr %23, align 4, !tbaa !29
  %25 = ashr i32 %24, 1
  %26 = sext i32 %25 to i64
  %27 = getelementptr inbounds ptr, ptr %.val.i.i, i64 %26
  %28 = load ptr, ptr %27, align 8, !tbaa !27
  %29 = getelementptr i8, ptr %28, i64 24
  %.010.val = load i64, ptr %29, align 8
  %30 = and i64 %.010.val, 7
  %.not = icmp eq i64 %30, 4
  br i1 %.not, label %Aig_ObjFanout0.exit, label %._crit_edge, !llvm.loop !52

._crit_edge:                                      ; preds = %Aig_ObjFanout0.exit, %9
  %.010.lcssa = phi ptr [ %15, %9 ], [ %28, %Aig_ObjFanout0.exit ]
  tail call void @Aig_NodeFixBufferFanins(ptr noundef nonnull %0, ptr noundef nonnull %.010.lcssa, i32 noundef %1)
  %exitcond = icmp eq i32 %.022, 1000001
  br i1 %exitcond, label %31, label %32

31:                                               ; preds = %._crit_edge
  %puts = tail call i32 @puts(ptr nonnull dereferenceable(1) @str.1)
  br label %.loopexit

32:                                               ; preds = %._crit_edge
  %33 = add nuw nsw i32 %.022, 1
  %34 = load ptr, ptr %3, align 8, !tbaa !40
  %35 = getelementptr i8, ptr %34, i64 4
  %.val = load i32, ptr %35, align 4, !tbaa !22
  %36 = icmp sgt i32 %.val, 0
  br i1 %36, label %9, label %.loopexit, !llvm.loop !53

.loopexit:                                        ; preds = %32, %2, %31
  %.017 = phi i32 [ 1000001, %31 ], [ 0, %2 ], [ %33, %32 ]
  ret i32 %.017
}